	.file	"program.c"
	.intel_syntax noprefix
	.text
	.globl	add
	.type	add, @function
add:
.LFB0:
	.cfi_startproc
	endbr64
	push	rbp
	.cfi_def_cfa_offset 16
	.cfi_offset 6, -16
	mov	rbp, rsp
	.cfi_def_cfa_register 6
	mov	DWORD PTR -4[rbp], edi
	mov	DWORD PTR -8[rbp], esi
	mov	edx, DWORD PTR -4[rbp]
	mov	eax, DWORD PTR -8[rbp]
	add	eax, edx
	pop	rbp
	.cfi_def_cfa 7, 8
	ret
	.cfi_endproc
.LFE0:
	.size	add, .-add
	.globl	subtract
	.type	subtract, @function
subtract:
.LFB1:
	.cfi_startproc
	endbr64
	push	rbp
	.cfi_def_cfa_offset 16
	.cfi_offset 6, -16
	mov	rbp, rsp
	.cfi_def_cfa_register 6
	mov	DWORD PTR -4[rbp], edi
	mov	DWORD PTR -8[rbp], esi
	mov	eax, DWORD PTR -4[rbp]
	sub	eax, DWORD PTR -8[rbp]
	pop	rbp
	.cfi_def_cfa 7, 8
	ret
	.cfi_endproc
.LFE1:
	.size	subtract, .-subtract
	.section	.rodata
.LC0:
	.string	"%d"
	.text
	.globl	result_printer
	.type	result_printer, @function
result_printer:
.LFB2:
	.cfi_startproc
	endbr64
	push	rbp
	.cfi_def_cfa_offset 16
	.cfi_offset 6, -16
	mov	rbp, rsp
	.cfi_def_cfa_register 6
	sub	rsp, 16
	mov	DWORD PTR -4[rbp], edi
	mov	eax, DWORD PTR -4[rbp]
	mov	esi, eax
	lea	rax, .LC0[rip]
	mov	rdi, rax
	mov	eax, 0
	call	printf@PLT
	nop
	leave
	.cfi_def_cfa 7, 8
	ret
	.cfi_endproc
.LFE2:
	.size	result_printer, .-result_printer
	.globl	main
	.type	main, @function
main:
.LFB3:
	.cfi_startproc
	endbr64
	push	rbp
	.cfi_def_cfa_offset 16
	.cfi_offset 6, -16
	mov	rbp, rsp
	.cfi_def_cfa_register 6
	sub	rsp, 16
	mov	esi, 3
	mov	edi, 2
	call	add
	mov	DWORD PTR -8[rbp], eax
	mov	eax, DWORD PTR -8[rbp]
	mov	esi, 1
	mov	edi, eax
	call	subtract
	mov	DWORD PTR -4[rbp], eax
	mov	eax, DWORD PTR -4[rbp]
	mov	edi, eax
	call	result_printer
	mov	eax, 0
	leave
	.cfi_def_cfa 7, 8
	ret
	.cfi_endproc
.LFE3:
	.size	main, .-main
	.ident	"GCC: (Ubuntu 13.2.0-4ubuntu3) 13.2.0"
	.section	.note.GNU-stack,"",@progbits
	.section	.note.gnu.property,"a"
	.align 8
	.long	1f - 0f
	.long	4f - 1f
	.long	5
0:
	.string	"GNU"
1:
	.align 8
	.long	0xc0000002
	.long	3f - 2f
2:
	.long	0x3
3:
	.align 8
4:
